                                      1 ;--------------------------------------------------------
                                      2 ; File Created by SDCC : free open source ANSI-C Compiler
                                      3 ; Version 4.2.0 #13081 (Linux)
                                      4 ;--------------------------------------------------------
                                      5 	.module io
                                      6 	.optsdcc -mmcs51 --model-large
                                      7 	
                                      8 ;--------------------------------------------------------
                                      9 ; Public variables in this module
                                     10 ;--------------------------------------------------------
                                     11 	.globl _printf_tiny
                                     12 	.globl _P5_7
                                     13 	.globl _P5_6
                                     14 	.globl _P5_5
                                     15 	.globl _P5_4
                                     16 	.globl _P5_3
                                     17 	.globl _P5_2
                                     18 	.globl _P5_1
                                     19 	.globl _P5_0
                                     20 	.globl _P4_7
                                     21 	.globl _P4_6
                                     22 	.globl _P4_5
                                     23 	.globl _P4_4
                                     24 	.globl _P4_3
                                     25 	.globl _P4_2
                                     26 	.globl _P4_1
                                     27 	.globl _P4_0
                                     28 	.globl _PX0L
                                     29 	.globl _PT0L
                                     30 	.globl _PX1L
                                     31 	.globl _PT1L
                                     32 	.globl _PSL
                                     33 	.globl _PT2L
                                     34 	.globl _PPCL
                                     35 	.globl _EC
                                     36 	.globl _CCF0
                                     37 	.globl _CCF1
                                     38 	.globl _CCF2
                                     39 	.globl _CCF3
                                     40 	.globl _CCF4
                                     41 	.globl _CR
                                     42 	.globl _CF
                                     43 	.globl _TF2
                                     44 	.globl _EXF2
                                     45 	.globl _RCLK
                                     46 	.globl _TCLK
                                     47 	.globl _EXEN2
                                     48 	.globl _TR2
                                     49 	.globl _C_T2
                                     50 	.globl _CP_RL2
                                     51 	.globl _T2CON_7
                                     52 	.globl _T2CON_6
                                     53 	.globl _T2CON_5
                                     54 	.globl _T2CON_4
                                     55 	.globl _T2CON_3
                                     56 	.globl _T2CON_2
                                     57 	.globl _T2CON_1
                                     58 	.globl _T2CON_0
                                     59 	.globl _PT2
                                     60 	.globl _ET2
                                     61 	.globl _CY
                                     62 	.globl _AC
                                     63 	.globl _F0
                                     64 	.globl _RS1
                                     65 	.globl _RS0
                                     66 	.globl _OV
                                     67 	.globl _F1
                                     68 	.globl _P
                                     69 	.globl _PS
                                     70 	.globl _PT1
                                     71 	.globl _PX1
                                     72 	.globl _PT0
                                     73 	.globl _PX0
                                     74 	.globl _RD
                                     75 	.globl _WR
                                     76 	.globl _T1
                                     77 	.globl _T0
                                     78 	.globl _INT1
                                     79 	.globl _INT0
                                     80 	.globl _TXD
                                     81 	.globl _RXD
                                     82 	.globl _P3_7
                                     83 	.globl _P3_6
                                     84 	.globl _P3_5
                                     85 	.globl _P3_4
                                     86 	.globl _P3_3
                                     87 	.globl _P3_2
                                     88 	.globl _P3_1
                                     89 	.globl _P3_0
                                     90 	.globl _EA
                                     91 	.globl _ES
                                     92 	.globl _ET1
                                     93 	.globl _EX1
                                     94 	.globl _ET0
                                     95 	.globl _EX0
                                     96 	.globl _P2_7
                                     97 	.globl _P2_6
                                     98 	.globl _P2_5
                                     99 	.globl _P2_4
                                    100 	.globl _P2_3
                                    101 	.globl _P2_2
                                    102 	.globl _P2_1
                                    103 	.globl _P2_0
                                    104 	.globl _SM0
                                    105 	.globl _SM1
                                    106 	.globl _SM2
                                    107 	.globl _REN
                                    108 	.globl _TB8
                                    109 	.globl _RB8
                                    110 	.globl _TI
                                    111 	.globl _RI
                                    112 	.globl _P1_7
                                    113 	.globl _P1_6
                                    114 	.globl _P1_5
                                    115 	.globl _P1_4
                                    116 	.globl _P1_3
                                    117 	.globl _P1_2
                                    118 	.globl _P1_1
                                    119 	.globl _P1_0
                                    120 	.globl _TF1
                                    121 	.globl _TR1
                                    122 	.globl _TF0
                                    123 	.globl _TR0
                                    124 	.globl _IE1
                                    125 	.globl _IT1
                                    126 	.globl _IE0
                                    127 	.globl _IT0
                                    128 	.globl _P0_7
                                    129 	.globl _P0_6
                                    130 	.globl _P0_5
                                    131 	.globl _P0_4
                                    132 	.globl _P0_3
                                    133 	.globl _P0_2
                                    134 	.globl _P0_1
                                    135 	.globl _P0_0
                                    136 	.globl _EECON
                                    137 	.globl _KBF
                                    138 	.globl _KBE
                                    139 	.globl _KBLS
                                    140 	.globl _BRL
                                    141 	.globl _BDRCON
                                    142 	.globl _T2MOD
                                    143 	.globl _SPDAT
                                    144 	.globl _SPSTA
                                    145 	.globl _SPCON
                                    146 	.globl _SADEN
                                    147 	.globl _SADDR
                                    148 	.globl _WDTPRG
                                    149 	.globl _WDTRST
                                    150 	.globl _P5
                                    151 	.globl _P4
                                    152 	.globl _IPH1
                                    153 	.globl _IPL1
                                    154 	.globl _IPH0
                                    155 	.globl _IPL0
                                    156 	.globl _IEN1
                                    157 	.globl _IEN0
                                    158 	.globl _CMOD
                                    159 	.globl _CL
                                    160 	.globl _CH
                                    161 	.globl _CCON
                                    162 	.globl _CCAPM4
                                    163 	.globl _CCAPM3
                                    164 	.globl _CCAPM2
                                    165 	.globl _CCAPM1
                                    166 	.globl _CCAPM0
                                    167 	.globl _CCAP4L
                                    168 	.globl _CCAP3L
                                    169 	.globl _CCAP2L
                                    170 	.globl _CCAP1L
                                    171 	.globl _CCAP0L
                                    172 	.globl _CCAP4H
                                    173 	.globl _CCAP3H
                                    174 	.globl _CCAP2H
                                    175 	.globl _CCAP1H
                                    176 	.globl _CCAP0H
                                    177 	.globl _CKCON1
                                    178 	.globl _CKCON0
                                    179 	.globl _CKRL
                                    180 	.globl _AUXR1
                                    181 	.globl _AUXR
                                    182 	.globl _TH2
                                    183 	.globl _TL2
                                    184 	.globl _RCAP2H
                                    185 	.globl _RCAP2L
                                    186 	.globl _T2CON
                                    187 	.globl _B
                                    188 	.globl _ACC
                                    189 	.globl _PSW
                                    190 	.globl _IP
                                    191 	.globl _P3
                                    192 	.globl _IE
                                    193 	.globl _P2
                                    194 	.globl _SBUF
                                    195 	.globl _SCON
                                    196 	.globl _P1
                                    197 	.globl _TH1
                                    198 	.globl _TH0
                                    199 	.globl _TL1
                                    200 	.globl _TL0
                                    201 	.globl _TMOD
                                    202 	.globl _TCON
                                    203 	.globl _PCON
                                    204 	.globl _DPH
                                    205 	.globl _DPL
                                    206 	.globl _SP
                                    207 	.globl _P0
                                    208 	.globl _getUserHexInput_PARM_2
                                    209 	.globl _getUserNumberInput_PARM_2
                                    210 	.globl _putchar
                                    211 	.globl _getchar
                                    212 	.globl _getUserNumberInput
                                    213 	.globl _getUserHexInput
                                    214 ;--------------------------------------------------------
                                    215 ; special function registers
                                    216 ;--------------------------------------------------------
                                    217 	.area RSEG    (ABS,DATA)
      000000                        218 	.org 0x0000
                           000080   219 _P0	=	0x0080
                           000081   220 _SP	=	0x0081
                           000082   221 _DPL	=	0x0082
                           000083   222 _DPH	=	0x0083
                           000087   223 _PCON	=	0x0087
                           000088   224 _TCON	=	0x0088
                           000089   225 _TMOD	=	0x0089
                           00008A   226 _TL0	=	0x008a
                           00008B   227 _TL1	=	0x008b
                           00008C   228 _TH0	=	0x008c
                           00008D   229 _TH1	=	0x008d
                           000090   230 _P1	=	0x0090
                           000098   231 _SCON	=	0x0098
                           000099   232 _SBUF	=	0x0099
                           0000A0   233 _P2	=	0x00a0
                           0000A8   234 _IE	=	0x00a8
                           0000B0   235 _P3	=	0x00b0
                           0000B8   236 _IP	=	0x00b8
                           0000D0   237 _PSW	=	0x00d0
                           0000E0   238 _ACC	=	0x00e0
                           0000F0   239 _B	=	0x00f0
                           0000C8   240 _T2CON	=	0x00c8
                           0000CA   241 _RCAP2L	=	0x00ca
                           0000CB   242 _RCAP2H	=	0x00cb
                           0000CC   243 _TL2	=	0x00cc
                           0000CD   244 _TH2	=	0x00cd
                           00008E   245 _AUXR	=	0x008e
                           0000A2   246 _AUXR1	=	0x00a2
                           000097   247 _CKRL	=	0x0097
                           00008F   248 _CKCON0	=	0x008f
                           0000AF   249 _CKCON1	=	0x00af
                           0000FA   250 _CCAP0H	=	0x00fa
                           0000FB   251 _CCAP1H	=	0x00fb
                           0000FC   252 _CCAP2H	=	0x00fc
                           0000FD   253 _CCAP3H	=	0x00fd
                           0000FE   254 _CCAP4H	=	0x00fe
                           0000EA   255 _CCAP0L	=	0x00ea
                           0000EB   256 _CCAP1L	=	0x00eb
                           0000EC   257 _CCAP2L	=	0x00ec
                           0000ED   258 _CCAP3L	=	0x00ed
                           0000EE   259 _CCAP4L	=	0x00ee
                           0000DA   260 _CCAPM0	=	0x00da
                           0000DB   261 _CCAPM1	=	0x00db
                           0000DC   262 _CCAPM2	=	0x00dc
                           0000DD   263 _CCAPM3	=	0x00dd
                           0000DE   264 _CCAPM4	=	0x00de
                           0000D8   265 _CCON	=	0x00d8
                           0000F9   266 _CH	=	0x00f9
                           0000E9   267 _CL	=	0x00e9
                           0000D9   268 _CMOD	=	0x00d9
                           0000A8   269 _IEN0	=	0x00a8
                           0000B1   270 _IEN1	=	0x00b1
                           0000B8   271 _IPL0	=	0x00b8
                           0000B7   272 _IPH0	=	0x00b7
                           0000B2   273 _IPL1	=	0x00b2
                           0000B3   274 _IPH1	=	0x00b3
                           0000C0   275 _P4	=	0x00c0
                           0000E8   276 _P5	=	0x00e8
                           0000A6   277 _WDTRST	=	0x00a6
                           0000A7   278 _WDTPRG	=	0x00a7
                           0000A9   279 _SADDR	=	0x00a9
                           0000B9   280 _SADEN	=	0x00b9
                           0000C3   281 _SPCON	=	0x00c3
                           0000C4   282 _SPSTA	=	0x00c4
                           0000C5   283 _SPDAT	=	0x00c5
                           0000C9   284 _T2MOD	=	0x00c9
                           00009B   285 _BDRCON	=	0x009b
                           00009A   286 _BRL	=	0x009a
                           00009C   287 _KBLS	=	0x009c
                           00009D   288 _KBE	=	0x009d
                           00009E   289 _KBF	=	0x009e
                           0000D2   290 _EECON	=	0x00d2
                                    291 ;--------------------------------------------------------
                                    292 ; special function bits
                                    293 ;--------------------------------------------------------
                                    294 	.area RSEG    (ABS,DATA)
      000000                        295 	.org 0x0000
                           000080   296 _P0_0	=	0x0080
                           000081   297 _P0_1	=	0x0081
                           000082   298 _P0_2	=	0x0082
                           000083   299 _P0_3	=	0x0083
                           000084   300 _P0_4	=	0x0084
                           000085   301 _P0_5	=	0x0085
                           000086   302 _P0_6	=	0x0086
                           000087   303 _P0_7	=	0x0087
                           000088   304 _IT0	=	0x0088
                           000089   305 _IE0	=	0x0089
                           00008A   306 _IT1	=	0x008a
                           00008B   307 _IE1	=	0x008b
                           00008C   308 _TR0	=	0x008c
                           00008D   309 _TF0	=	0x008d
                           00008E   310 _TR1	=	0x008e
                           00008F   311 _TF1	=	0x008f
                           000090   312 _P1_0	=	0x0090
                           000091   313 _P1_1	=	0x0091
                           000092   314 _P1_2	=	0x0092
                           000093   315 _P1_3	=	0x0093
                           000094   316 _P1_4	=	0x0094
                           000095   317 _P1_5	=	0x0095
                           000096   318 _P1_6	=	0x0096
                           000097   319 _P1_7	=	0x0097
                           000098   320 _RI	=	0x0098
                           000099   321 _TI	=	0x0099
                           00009A   322 _RB8	=	0x009a
                           00009B   323 _TB8	=	0x009b
                           00009C   324 _REN	=	0x009c
                           00009D   325 _SM2	=	0x009d
                           00009E   326 _SM1	=	0x009e
                           00009F   327 _SM0	=	0x009f
                           0000A0   328 _P2_0	=	0x00a0
                           0000A1   329 _P2_1	=	0x00a1
                           0000A2   330 _P2_2	=	0x00a2
                           0000A3   331 _P2_3	=	0x00a3
                           0000A4   332 _P2_4	=	0x00a4
                           0000A5   333 _P2_5	=	0x00a5
                           0000A6   334 _P2_6	=	0x00a6
                           0000A7   335 _P2_7	=	0x00a7
                           0000A8   336 _EX0	=	0x00a8
                           0000A9   337 _ET0	=	0x00a9
                           0000AA   338 _EX1	=	0x00aa
                           0000AB   339 _ET1	=	0x00ab
                           0000AC   340 _ES	=	0x00ac
                           0000AF   341 _EA	=	0x00af
                           0000B0   342 _P3_0	=	0x00b0
                           0000B1   343 _P3_1	=	0x00b1
                           0000B2   344 _P3_2	=	0x00b2
                           0000B3   345 _P3_3	=	0x00b3
                           0000B4   346 _P3_4	=	0x00b4
                           0000B5   347 _P3_5	=	0x00b5
                           0000B6   348 _P3_6	=	0x00b6
                           0000B7   349 _P3_7	=	0x00b7
                           0000B0   350 _RXD	=	0x00b0
                           0000B1   351 _TXD	=	0x00b1
                           0000B2   352 _INT0	=	0x00b2
                           0000B3   353 _INT1	=	0x00b3
                           0000B4   354 _T0	=	0x00b4
                           0000B5   355 _T1	=	0x00b5
                           0000B6   356 _WR	=	0x00b6
                           0000B7   357 _RD	=	0x00b7
                           0000B8   358 _PX0	=	0x00b8
                           0000B9   359 _PT0	=	0x00b9
                           0000BA   360 _PX1	=	0x00ba
                           0000BB   361 _PT1	=	0x00bb
                           0000BC   362 _PS	=	0x00bc
                           0000D0   363 _P	=	0x00d0
                           0000D1   364 _F1	=	0x00d1
                           0000D2   365 _OV	=	0x00d2
                           0000D3   366 _RS0	=	0x00d3
                           0000D4   367 _RS1	=	0x00d4
                           0000D5   368 _F0	=	0x00d5
                           0000D6   369 _AC	=	0x00d6
                           0000D7   370 _CY	=	0x00d7
                           0000AD   371 _ET2	=	0x00ad
                           0000BD   372 _PT2	=	0x00bd
                           0000C8   373 _T2CON_0	=	0x00c8
                           0000C9   374 _T2CON_1	=	0x00c9
                           0000CA   375 _T2CON_2	=	0x00ca
                           0000CB   376 _T2CON_3	=	0x00cb
                           0000CC   377 _T2CON_4	=	0x00cc
                           0000CD   378 _T2CON_5	=	0x00cd
                           0000CE   379 _T2CON_6	=	0x00ce
                           0000CF   380 _T2CON_7	=	0x00cf
                           0000C8   381 _CP_RL2	=	0x00c8
                           0000C9   382 _C_T2	=	0x00c9
                           0000CA   383 _TR2	=	0x00ca
                           0000CB   384 _EXEN2	=	0x00cb
                           0000CC   385 _TCLK	=	0x00cc
                           0000CD   386 _RCLK	=	0x00cd
                           0000CE   387 _EXF2	=	0x00ce
                           0000CF   388 _TF2	=	0x00cf
                           0000DF   389 _CF	=	0x00df
                           0000DE   390 _CR	=	0x00de
                           0000DC   391 _CCF4	=	0x00dc
                           0000DB   392 _CCF3	=	0x00db
                           0000DA   393 _CCF2	=	0x00da
                           0000D9   394 _CCF1	=	0x00d9
                           0000D8   395 _CCF0	=	0x00d8
                           0000AE   396 _EC	=	0x00ae
                           0000BE   397 _PPCL	=	0x00be
                           0000BD   398 _PT2L	=	0x00bd
                           0000BC   399 _PSL	=	0x00bc
                           0000BB   400 _PT1L	=	0x00bb
                           0000BA   401 _PX1L	=	0x00ba
                           0000B9   402 _PT0L	=	0x00b9
                           0000B8   403 _PX0L	=	0x00b8
                           0000C0   404 _P4_0	=	0x00c0
                           0000C1   405 _P4_1	=	0x00c1
                           0000C2   406 _P4_2	=	0x00c2
                           0000C3   407 _P4_3	=	0x00c3
                           0000C4   408 _P4_4	=	0x00c4
                           0000C5   409 _P4_5	=	0x00c5
                           0000C6   410 _P4_6	=	0x00c6
                           0000C7   411 _P4_7	=	0x00c7
                           0000E8   412 _P5_0	=	0x00e8
                           0000E9   413 _P5_1	=	0x00e9
                           0000EA   414 _P5_2	=	0x00ea
                           0000EB   415 _P5_3	=	0x00eb
                           0000EC   416 _P5_4	=	0x00ec
                           0000ED   417 _P5_5	=	0x00ed
                           0000EE   418 _P5_6	=	0x00ee
                           0000EF   419 _P5_7	=	0x00ef
                                    420 ;--------------------------------------------------------
                                    421 ; overlayable register banks
                                    422 ;--------------------------------------------------------
                                    423 	.area REG_BANK_0	(REL,OVR,DATA)
      000000                        424 	.ds 8
                                    425 ;--------------------------------------------------------
                                    426 ; internal ram data
                                    427 ;--------------------------------------------------------
                                    428 	.area DSEG    (DATA)
                                    429 ;--------------------------------------------------------
                                    430 ; overlayable items in internal ram
                                    431 ;--------------------------------------------------------
                                    432 ;--------------------------------------------------------
                                    433 ; indirectly addressable internal ram data
                                    434 ;--------------------------------------------------------
                                    435 	.area ISEG    (DATA)
                                    436 ;--------------------------------------------------------
                                    437 ; absolute internal ram data
                                    438 ;--------------------------------------------------------
                                    439 	.area IABS    (ABS,DATA)
                                    440 	.area IABS    (ABS,DATA)
                                    441 ;--------------------------------------------------------
                                    442 ; bit data
                                    443 ;--------------------------------------------------------
                                    444 	.area BSEG    (BIT)
                                    445 ;--------------------------------------------------------
                                    446 ; paged external ram data
                                    447 ;--------------------------------------------------------
                                    448 	.area PSEG    (PAG,XDATA)
                                    449 ;--------------------------------------------------------
                                    450 ; external ram data
                                    451 ;--------------------------------------------------------
                                    452 	.area XSEG    (XDATA)
      000000                        453 _putchar_c_65536_17:
      000000                        454 	.ds 2
      000002                        455 _getUserNumberInput_PARM_2:
      000002                        456 	.ds 2
      000004                        457 _getUserNumberInput_maxDigits_65536_21:
      000004                        458 	.ds 1
      000005                        459 _getUserNumberInput_value_65536_22:
      000005                        460 	.ds 2
      000007                        461 _getUserNumberInput_fail_131073_24:
      000007                        462 	.ds 1
      000008                        463 _getUserHexInput_PARM_2:
      000008                        464 	.ds 2
      00000A                        465 _getUserHexInput_maxChar_65536_32:
      00000A                        466 	.ds 1
      00000B                        467 _getUserHexInput_value_65536_33:
      00000B                        468 	.ds 2
      00000D                        469 _getUserHexInput_fail_131073_35:
      00000D                        470 	.ds 1
      00000E                        471 _getUserHexInput_x_262146_39:
      00000E                        472 	.ds 1
                                    473 ;--------------------------------------------------------
                                    474 ; absolute external ram data
                                    475 ;--------------------------------------------------------
                                    476 	.area XABS    (ABS,XDATA)
                                    477 ;--------------------------------------------------------
                                    478 ; external initialized ram data
                                    479 ;--------------------------------------------------------
                                    480 	.area XISEG   (XDATA)
                                    481 	.area HOME    (CODE)
                                    482 	.area GSINIT0 (CODE)
                                    483 	.area GSINIT1 (CODE)
                                    484 	.area GSINIT2 (CODE)
                                    485 	.area GSINIT3 (CODE)
                                    486 	.area GSINIT4 (CODE)
                                    487 	.area GSINIT5 (CODE)
                                    488 	.area GSINIT  (CODE)
                                    489 	.area GSFINAL (CODE)
                                    490 	.area CSEG    (CODE)
                                    491 ;--------------------------------------------------------
                                    492 ; global & static initialisations
                                    493 ;--------------------------------------------------------
                                    494 	.area HOME    (CODE)
                                    495 	.area GSINIT  (CODE)
                                    496 	.area GSFINAL (CODE)
                                    497 	.area GSINIT  (CODE)
                                    498 ;--------------------------------------------------------
                                    499 ; Home
                                    500 ;--------------------------------------------------------
                                    501 	.area HOME    (CODE)
                                    502 	.area HOME    (CODE)
                                    503 ;--------------------------------------------------------
                                    504 ; code
                                    505 ;--------------------------------------------------------
                                    506 	.area CSEG    (CODE)
                                    507 ;------------------------------------------------------------
                                    508 ;Allocation info for local variables in function 'putchar'
                                    509 ;------------------------------------------------------------
                                    510 ;c                         Allocated with name '_putchar_c_65536_17'
                                    511 ;------------------------------------------------------------
                                    512 ;	src/io.c:34: int putchar(int c)
                                    513 ;	-----------------------------------------
                                    514 ;	 function putchar
                                    515 ;	-----------------------------------------
      000000                        516 _putchar:
                           000007   517 	ar7 = 0x07
                           000006   518 	ar6 = 0x06
                           000005   519 	ar5 = 0x05
                           000004   520 	ar4 = 0x04
                           000003   521 	ar3 = 0x03
                           000002   522 	ar2 = 0x02
                           000001   523 	ar1 = 0x01
                           000000   524 	ar0 = 0x00
      000000 AF 83            [24]  525 	mov	r7,dph
      000002 E5 82            [12]  526 	mov	a,dpl
      000004 90r00r00         [24]  527 	mov	dptr,#_putchar_c_65536_17
      000007 F0               [24]  528 	movx	@dptr,a
      000008 EF               [12]  529 	mov	a,r7
      000009 A3               [24]  530 	inc	dptr
      00000A F0               [24]  531 	movx	@dptr,a
                                    532 ;	src/io.c:36: while (TI != 1);       // Waits until TI flag is ready to transmit data, set by hardware
      00000B                        533 00101$:
                                    534 ;	src/io.c:37: TI = 0;               // Once data has been transmitted, TI flag is cleared by software
                                    535 ;	assignBit
      00000B 10 99 02         [24]  536 	jbc	_TI,00114$
      00000E 80 FB            [24]  537 	sjmp	00101$
      000010                        538 00114$:
                                    539 ;	src/io.c:38: SBUF = c;             // Transmits the ASCII value of c on the serial line
      000010 90r00r00         [24]  540 	mov	dptr,#_putchar_c_65536_17
      000013 E0               [24]  541 	movx	a,@dptr
      000014 FE               [12]  542 	mov	r6,a
      000015 A3               [24]  543 	inc	dptr
      000016 E0               [24]  544 	movx	a,@dptr
      000017 FF               [12]  545 	mov	r7,a
      000018 8E 99            [24]  546 	mov	_SBUF,r6
                                    547 ;	src/io.c:39: return c;
      00001A 8E 82            [24]  548 	mov	dpl,r6
      00001C 8F 83            [24]  549 	mov	dph,r7
                                    550 ;	src/io.c:40: }
      00001E 22               [24]  551 	ret
                                    552 ;------------------------------------------------------------
                                    553 ;Allocation info for local variables in function 'getchar'
                                    554 ;------------------------------------------------------------
                                    555 ;	src/io.c:48: int getchar(void)
                                    556 ;	-----------------------------------------
                                    557 ;	 function getchar
                                    558 ;	-----------------------------------------
      00001F                        559 _getchar:
                                    560 ;	src/io.c:50: while (RI != 1);      // Waits until RI has received data
      00001F                        561 00101$:
                                    562 ;	src/io.c:51: RI = 0;               // Once data has been received, software clears the RI flag
                                    563 ;	assignBit
      00001F 10 98 02         [24]  564 	jbc	_RI,00114$
      000022 80 FB            [24]  565 	sjmp	00101$
      000024                        566 00114$:
                                    567 ;	src/io.c:52: return SBUF;          // Returns value in SBUF to the calling function
      000024 AE 99            [24]  568 	mov	r6,_SBUF
      000026 7F 00            [12]  569 	mov	r7,#0x00
      000028 8E 82            [24]  570 	mov	dpl,r6
      00002A 8F 83            [24]  571 	mov	dph,r7
                                    572 ;	src/io.c:53: }
      00002C 22               [24]  573 	ret
                                    574 ;------------------------------------------------------------
                                    575 ;Allocation info for local variables in function 'getUserNumberInput'
                                    576 ;------------------------------------------------------------
                                    577 ;maxVal                    Allocated with name '_getUserNumberInput_PARM_2'
                                    578 ;maxDigits                 Allocated with name '_getUserNumberInput_maxDigits_65536_21'
                                    579 ;value                     Allocated with name '_getUserNumberInput_value_65536_22'
                                    580 ;fail                      Allocated with name '_getUserNumberInput_fail_131073_24'
                                    581 ;i                         Allocated with name '_getUserNumberInput_i_196609_25'
                                    582 ;c                         Allocated with name '_getUserNumberInput_c_262145_26'
                                    583 ;x                         Allocated with name '_getUserNumberInput_x_327681_28'
                                    584 ;------------------------------------------------------------
                                    585 ;	src/io.c:62: uint16_t getUserNumberInput(uint8_t maxDigits, uint16_t maxVal) //max number of digits user can input
                                    586 ;	-----------------------------------------
                                    587 ;	 function getUserNumberInput
                                    588 ;	-----------------------------------------
      00002D                        589 _getUserNumberInput:
      00002D E5 82            [12]  590 	mov	a,dpl
      00002F 90r00r04         [24]  591 	mov	dptr,#_getUserNumberInput_maxDigits_65536_21
      000032 F0               [24]  592 	movx	@dptr,a
                                    593 ;	src/io.c:66: while (1)
      000033 90r00r02         [24]  594 	mov	dptr,#_getUserNumberInput_PARM_2
      000036 E0               [24]  595 	movx	a,@dptr
      000037 FE               [12]  596 	mov	r6,a
      000038 A3               [24]  597 	inc	dptr
      000039 E0               [24]  598 	movx	a,@dptr
      00003A FF               [12]  599 	mov	r7,a
      00003B 90r00r04         [24]  600 	mov	dptr,#_getUserNumberInput_maxDigits_65536_21
      00003E E0               [24]  601 	movx	a,@dptr
      00003F FD               [12]  602 	mov	r5,a
      000040                        603 00113$:
                                    604 ;	src/io.c:68: value = 0;
      000040 90r00r05         [24]  605 	mov	dptr,#_getUserNumberInput_value_65536_22
      000043 E4               [12]  606 	clr	a
      000044 F0               [24]  607 	movx	@dptr,a
      000045 A3               [24]  608 	inc	dptr
      000046 F0               [24]  609 	movx	@dptr,a
                                    610 ;	src/io.c:69: bool fail = false;
      000047 90r00r07         [24]  611 	mov	dptr,#_getUserNumberInput_fail_131073_24
      00004A F0               [24]  612 	movx	@dptr,a
                                    613 ;	src/io.c:70: printf_tiny("\n\rEnter a maximum %d digit number:", maxDigits);
      00004B 8D 03            [24]  614 	mov	ar3,r5
      00004D 7C 00            [12]  615 	mov	r4,#0x00
      00004F C0 07            [24]  616 	push	ar7
      000051 C0 06            [24]  617 	push	ar6
      000053 C0 05            [24]  618 	push	ar5
      000055 C0 03            [24]  619 	push	ar3
      000057 C0 04            [24]  620 	push	ar4
      000059 74r00            [12]  621 	mov	a,#___str_0
      00005B C0 E0            [24]  622 	push	acc
      00005D 74s00            [12]  623 	mov	a,#(___str_0 >> 8)
      00005F C0 E0            [24]  624 	push	acc
      000061 12r00r00         [24]  625 	lcall	_printf_tiny
      000064 E5 81            [12]  626 	mov	a,sp
      000066 24 FC            [12]  627 	add	a,#0xfc
      000068 F5 81            [12]  628 	mov	sp,a
      00006A D0 05            [24]  629 	pop	ar5
      00006C D0 06            [24]  630 	pop	ar6
      00006E D0 07            [24]  631 	pop	ar7
                                    632 ;	src/io.c:71: for (uint8_t i = 0; i < maxDigits; i++)
      000070 7C 00            [12]  633 	mov	r4,#0x00
      000072                        634 00116$:
      000072 C3               [12]  635 	clr	c
      000073 EC               [12]  636 	mov	a,r4
      000074 9D               [12]  637 	subb	a,r5
      000075 40 03            [24]  638 	jc	00152$
      000077 02r01r95         [24]  639 	ljmp	00109$
      00007A                        640 00152$:
                                    641 ;	src/io.c:73: char c = getchar();               //  take user input
      00007A C0 07            [24]  642 	push	ar7
      00007C C0 06            [24]  643 	push	ar6
      00007E C0 05            [24]  644 	push	ar5
      000080 C0 04            [24]  645 	push	ar4
      000082 12r00r1F         [24]  646 	lcall	_getchar
      000085 AA 82            [24]  647 	mov	r2,dpl
      000087 AB 83            [24]  648 	mov	r3,dph
      000089 D0 04            [24]  649 	pop	ar4
      00008B D0 05            [24]  650 	pop	ar5
      00008D D0 06            [24]  651 	pop	ar6
      00008F D0 07            [24]  652 	pop	ar7
                                    653 ;	src/io.c:74: if (c == '\r')                    //user enters ENTER key
      000091 BA 0D 03         [24]  654 	cjne	r2,#0x0d,00153$
      000094 02r01r95         [24]  655 	ljmp	00109$
      000097                        656 00153$:
                                    657 ;	src/io.c:78: printf_tiny("%c", c);            //prints character on screen as user is typing
      000097 8A 01            [24]  658 	mov	ar1,r2
      000099 7B 00            [12]  659 	mov	r3,#0x00
      00009B C0 07            [24]  660 	push	ar7
      00009D C0 06            [24]  661 	push	ar6
      00009F C0 05            [24]  662 	push	ar5
      0000A1 C0 04            [24]  663 	push	ar4
      0000A3 C0 02            [24]  664 	push	ar2
      0000A5 C0 01            [24]  665 	push	ar1
      0000A7 C0 03            [24]  666 	push	ar3
      0000A9 74r23            [12]  667 	mov	a,#___str_1
      0000AB C0 E0            [24]  668 	push	acc
      0000AD 74s00            [12]  669 	mov	a,#(___str_1 >> 8)
      0000AF C0 E0            [24]  670 	push	acc
      0000B1 12r00r00         [24]  671 	lcall	_printf_tiny
      0000B4 E5 81            [12]  672 	mov	a,sp
      0000B6 24 FC            [12]  673 	add	a,#0xfc
      0000B8 F5 81            [12]  674 	mov	sp,a
      0000BA D0 02            [24]  675 	pop	ar2
      0000BC D0 04            [24]  676 	pop	ar4
      0000BE D0 05            [24]  677 	pop	ar5
      0000C0 D0 06            [24]  678 	pop	ar6
      0000C2 D0 07            [24]  679 	pop	ar7
                                    680 ;	src/io.c:79: if (c >= '0' && c <= '9')        // check if input is a number
      0000C4 BA 30 00         [24]  681 	cjne	r2,#0x30,00154$
      0000C7                        682 00154$:
      0000C7 50 03            [24]  683 	jnc	00155$
      0000C9 02r01r5F         [24]  684 	ljmp	00106$
      0000CC                        685 00155$:
      0000CC EA               [12]  686 	mov	a,r2
      0000CD 24 C6            [12]  687 	add	a,#0xff - 0x39
      0000CF 50 03            [24]  688 	jnc	00156$
      0000D1 02r01r5F         [24]  689 	ljmp	00106$
      0000D4                        690 00156$:
                                    691 ;	src/io.c:81: uint8_t x = c - '0';           //converts user input(ASCII) to int
      0000D4 EA               [12]  692 	mov	a,r2
      0000D5 24 D0            [12]  693 	add	a,#0xd0
      0000D7 FA               [12]  694 	mov	r2,a
                                    695 ;	src/io.c:82: value = value * 10 + x;        //calculates multi-digit ASCII input
      0000D8 90r00r05         [24]  696 	mov	dptr,#_getUserNumberInput_value_65536_22
      0000DB E0               [24]  697 	movx	a,@dptr
      0000DC F9               [12]  698 	mov	r1,a
      0000DD A3               [24]  699 	inc	dptr
      0000DE E0               [24]  700 	movx	a,@dptr
      0000DF FB               [12]  701 	mov	r3,a
      0000E0 90r00r00         [24]  702 	mov	dptr,#__mulint_PARM_2
      0000E3 E9               [12]  703 	mov	a,r1
      0000E4 F0               [24]  704 	movx	@dptr,a
      0000E5 EB               [12]  705 	mov	a,r3
      0000E6 A3               [24]  706 	inc	dptr
      0000E7 F0               [24]  707 	movx	@dptr,a
      0000E8 90 00 0A         [24]  708 	mov	dptr,#0x000a
      0000EB C0 07            [24]  709 	push	ar7
      0000ED C0 06            [24]  710 	push	ar6
      0000EF C0 05            [24]  711 	push	ar5
      0000F1 C0 04            [24]  712 	push	ar4
      0000F3 C0 02            [24]  713 	push	ar2
      0000F5 12r00r00         [24]  714 	lcall	__mulint
      0000F8 A9 82            [24]  715 	mov	r1,dpl
      0000FA AB 83            [24]  716 	mov	r3,dph
      0000FC D0 02            [24]  717 	pop	ar2
      0000FE D0 04            [24]  718 	pop	ar4
      000100 D0 05            [24]  719 	pop	ar5
      000102 D0 06            [24]  720 	pop	ar6
      000104 D0 07            [24]  721 	pop	ar7
      000106 8A 00            [24]  722 	mov	ar0,r2
      000108 7A 00            [12]  723 	mov	r2,#0x00
      00010A E8               [12]  724 	mov	a,r0
      00010B 29               [12]  725 	add	a,r1
      00010C F9               [12]  726 	mov	r1,a
      00010D EA               [12]  727 	mov	a,r2
      00010E 3B               [12]  728 	addc	a,r3
      00010F FB               [12]  729 	mov	r3,a
      000110 90r00r05         [24]  730 	mov	dptr,#_getUserNumberInput_value_65536_22
      000113 E9               [12]  731 	mov	a,r1
      000114 F0               [24]  732 	movx	@dptr,a
      000115 EB               [12]  733 	mov	a,r3
      000116 A3               [24]  734 	inc	dptr
      000117 F0               [24]  735 	movx	@dptr,a
                                    736 ;	src/io.c:83: if (value > maxVal)
      000118 90r00r05         [24]  737 	mov	dptr,#_getUserNumberInput_value_65536_22
      00011B E0               [24]  738 	movx	a,@dptr
      00011C FA               [12]  739 	mov	r2,a
      00011D A3               [24]  740 	inc	dptr
      00011E E0               [24]  741 	movx	a,@dptr
      00011F FB               [12]  742 	mov	r3,a
      000120 C3               [12]  743 	clr	c
      000121 EE               [12]  744 	mov	a,r6
      000122 9A               [12]  745 	subb	a,r2
      000123 EF               [12]  746 	mov	a,r7
      000124 9B               [12]  747 	subb	a,r3
      000125 50 6A            [24]  748 	jnc	00117$
                                    749 ;	src/io.c:85: ERROR_LOG("Value entered is beyond range %x", maxVal);
      000127 C0 07            [24]  750 	push	ar7
      000129 C0 06            [24]  751 	push	ar6
      00012B C0 05            [24]  752 	push	ar5
      00012D C0 06            [24]  753 	push	ar6
      00012F C0 07            [24]  754 	push	ar7
      000131 74r26            [12]  755 	mov	a,#___str_2
      000133 C0 E0            [24]  756 	push	acc
      000135 74s00            [12]  757 	mov	a,#(___str_2 >> 8)
      000137 C0 E0            [24]  758 	push	acc
      000139 12r00r00         [24]  759 	lcall	_printf_tiny
      00013C E5 81            [12]  760 	mov	a,sp
      00013E 24 FC            [12]  761 	add	a,#0xfc
      000140 F5 81            [12]  762 	mov	sp,a
      000142 74r57            [12]  763 	mov	a,#___str_3
      000144 C0 E0            [24]  764 	push	acc
      000146 74s00            [12]  765 	mov	a,#(___str_3 >> 8)
      000148 C0 E0            [24]  766 	push	acc
      00014A 12r00r00         [24]  767 	lcall	_printf_tiny
      00014D 15 81            [12]  768 	dec	sp
      00014F 15 81            [12]  769 	dec	sp
      000151 D0 05            [24]  770 	pop	ar5
      000153 D0 06            [24]  771 	pop	ar6
      000155 D0 07            [24]  772 	pop	ar7
                                    773 ;	src/io.c:86: fail = true;
      000157 90r00r07         [24]  774 	mov	dptr,#_getUserNumberInput_fail_131073_24
      00015A 74 01            [12]  775 	mov	a,#0x01
      00015C F0               [24]  776 	movx	@dptr,a
                                    777 ;	src/io.c:87: break;
      00015D 80 36            [24]  778 	sjmp	00109$
      00015F                        779 00106$:
                                    780 ;	src/io.c:92: ERROR_LOG("Enter only digit!");   //if user enters an other character than a number
      00015F C0 07            [24]  781 	push	ar7
      000161 C0 06            [24]  782 	push	ar6
      000163 C0 05            [24]  783 	push	ar5
      000165 74r5C            [12]  784 	mov	a,#___str_4
      000167 C0 E0            [24]  785 	push	acc
      000169 74s00            [12]  786 	mov	a,#(___str_4 >> 8)
      00016B C0 E0            [24]  787 	push	acc
      00016D 12r00r00         [24]  788 	lcall	_printf_tiny
      000170 15 81            [12]  789 	dec	sp
      000172 15 81            [12]  790 	dec	sp
      000174 74r57            [12]  791 	mov	a,#___str_3
      000176 C0 E0            [24]  792 	push	acc
      000178 74s00            [12]  793 	mov	a,#(___str_3 >> 8)
      00017A C0 E0            [24]  794 	push	acc
      00017C 12r00r00         [24]  795 	lcall	_printf_tiny
      00017F 15 81            [12]  796 	dec	sp
      000181 15 81            [12]  797 	dec	sp
      000183 D0 05            [24]  798 	pop	ar5
      000185 D0 06            [24]  799 	pop	ar6
      000187 D0 07            [24]  800 	pop	ar7
                                    801 ;	src/io.c:93: fail = true;
      000189 90r00r07         [24]  802 	mov	dptr,#_getUserNumberInput_fail_131073_24
      00018C 74 01            [12]  803 	mov	a,#0x01
      00018E F0               [24]  804 	movx	@dptr,a
                                    805 ;	src/io.c:94: break;
      00018F 80 04            [24]  806 	sjmp	00109$
      000191                        807 00117$:
                                    808 ;	src/io.c:71: for (uint8_t i = 0; i < maxDigits; i++)
      000191 0C               [12]  809 	inc	r4
      000192 02r00r72         [24]  810 	ljmp	00116$
      000195                        811 00109$:
                                    812 ;	src/io.c:98: if (fail == false)                      //if no previous errors have occured, break while loop
      000195 90r00r07         [24]  813 	mov	dptr,#_getUserNumberInput_fail_131073_24
      000198 E0               [24]  814 	movx	a,@dptr
      000199 60 03            [24]  815 	jz	00158$
      00019B 02r00r40         [24]  816 	ljmp	00113$
      00019E                        817 00158$:
                                    818 ;	src/io.c:103: USER_INPUT_CHECK("User entered input = %d", value);
      00019E 90r00r05         [24]  819 	mov	dptr,#_getUserNumberInput_value_65536_22
      0001A1 E0               [24]  820 	movx	a,@dptr
      0001A2 FE               [12]  821 	mov	r6,a
      0001A3 A3               [24]  822 	inc	dptr
      0001A4 E0               [24]  823 	movx	a,@dptr
      0001A5 FF               [12]  824 	mov	r7,a
      0001A6 C0 07            [24]  825 	push	ar7
      0001A8 C0 06            [24]  826 	push	ar6
      0001AA C0 06            [24]  827 	push	ar6
      0001AC C0 07            [24]  828 	push	ar7
      0001AE 74r7E            [12]  829 	mov	a,#___str_5
      0001B0 C0 E0            [24]  830 	push	acc
      0001B2 74s00            [12]  831 	mov	a,#(___str_5 >> 8)
      0001B4 C0 E0            [24]  832 	push	acc
      0001B6 12r00r00         [24]  833 	lcall	_printf_tiny
      0001B9 E5 81            [12]  834 	mov	a,sp
      0001BB 24 FC            [12]  835 	add	a,#0xfc
      0001BD F5 81            [12]  836 	mov	sp,a
      0001BF 74r57            [12]  837 	mov	a,#___str_3
      0001C1 C0 E0            [24]  838 	push	acc
      0001C3 74s00            [12]  839 	mov	a,#(___str_3 >> 8)
      0001C5 C0 E0            [24]  840 	push	acc
      0001C7 12r00r00         [24]  841 	lcall	_printf_tiny
      0001CA 15 81            [12]  842 	dec	sp
      0001CC 15 81            [12]  843 	dec	sp
      0001CE D0 06            [24]  844 	pop	ar6
      0001D0 D0 07            [24]  845 	pop	ar7
                                    846 ;	src/io.c:104: return value;
      0001D2 8E 82            [24]  847 	mov	dpl,r6
      0001D4 8F 83            [24]  848 	mov	dph,r7
                                    849 ;	src/io.c:105: }
      0001D6 22               [24]  850 	ret
                                    851 ;------------------------------------------------------------
                                    852 ;Allocation info for local variables in function 'getUserHexInput'
                                    853 ;------------------------------------------------------------
                                    854 ;maxVal                    Allocated with name '_getUserHexInput_PARM_2'
                                    855 ;maxChar                   Allocated with name '_getUserHexInput_maxChar_65536_32'
                                    856 ;value                     Allocated with name '_getUserHexInput_value_65536_33'
                                    857 ;fail                      Allocated with name '_getUserHexInput_fail_131073_35'
                                    858 ;i                         Allocated with name '_getUserHexInput_i_196609_36'
                                    859 ;c                         Allocated with name '_getUserHexInput_c_262145_37'
                                    860 ;x                         Allocated with name '_getUserHexInput_x_262146_39'
                                    861 ;------------------------------------------------------------
                                    862 ;	src/io.c:113: uint16_t getUserHexInput(uint8_t maxChar,uint16_t maxVal) //max number of digits user can input
                                    863 ;	-----------------------------------------
                                    864 ;	 function getUserHexInput
                                    865 ;	-----------------------------------------
      0001D7                        866 _getUserHexInput:
      0001D7 E5 82            [12]  867 	mov	a,dpl
      0001D9 90r00r0A         [24]  868 	mov	dptr,#_getUserHexInput_maxChar_65536_32
      0001DC F0               [24]  869 	movx	@dptr,a
                                    870 ;	src/io.c:117: while (1)
      0001DD 90r00r08         [24]  871 	mov	dptr,#_getUserHexInput_PARM_2
      0001E0 E0               [24]  872 	movx	a,@dptr
      0001E1 FE               [12]  873 	mov	r6,a
      0001E2 A3               [24]  874 	inc	dptr
      0001E3 E0               [24]  875 	movx	a,@dptr
      0001E4 FF               [12]  876 	mov	r7,a
      0001E5 90r00r0A         [24]  877 	mov	dptr,#_getUserHexInput_maxChar_65536_32
      0001E8 E0               [24]  878 	movx	a,@dptr
      0001E9 FD               [12]  879 	mov	r5,a
      0001EA                        880 00137$:
                                    881 ;	src/io.c:119: value = 0;
      0001EA 90r00r0B         [24]  882 	mov	dptr,#_getUserHexInput_value_65536_33
      0001ED E4               [12]  883 	clr	a
      0001EE F0               [24]  884 	movx	@dptr,a
      0001EF A3               [24]  885 	inc	dptr
      0001F0 F0               [24]  886 	movx	@dptr,a
                                    887 ;	src/io.c:120: bool fail = false;
      0001F1 90r00r0D         [24]  888 	mov	dptr,#_getUserHexInput_fail_131073_35
      0001F4 F0               [24]  889 	movx	@dptr,a
                                    890 ;	src/io.c:121: printf_tiny("\n\rEnter a maximum %d character input:", maxChar);
      0001F5 8D 03            [24]  891 	mov	ar3,r5
      0001F7 7C 00            [12]  892 	mov	r4,#0x00
      0001F9 C0 07            [24]  893 	push	ar7
      0001FB C0 06            [24]  894 	push	ar6
      0001FD C0 05            [24]  895 	push	ar5
      0001FF C0 03            [24]  896 	push	ar3
      000201 C0 04            [24]  897 	push	ar4
      000203 74r9F            [12]  898 	mov	a,#___str_6
      000205 C0 E0            [24]  899 	push	acc
      000207 74s00            [12]  900 	mov	a,#(___str_6 >> 8)
      000209 C0 E0            [24]  901 	push	acc
      00020B 12r00r00         [24]  902 	lcall	_printf_tiny
      00020E E5 81            [12]  903 	mov	a,sp
      000210 24 FC            [12]  904 	add	a,#0xfc
      000212 F5 81            [12]  905 	mov	sp,a
      000214 D0 05            [24]  906 	pop	ar5
      000216 D0 06            [24]  907 	pop	ar6
      000218 D0 07            [24]  908 	pop	ar7
                                    909 ;	src/io.c:122: for (uint8_t i = 0; i < maxChar; i++)
      00021A 7C 00            [12]  910 	mov	r4,#0x00
      00021C                        911 00140$:
      00021C C3               [12]  912 	clr	c
      00021D EC               [12]  913 	mov	a,r4
      00021E 9D               [12]  914 	subb	a,r5
      00021F 40 03            [24]  915 	jc	00200$
      000221 02r03r8A         [24]  916 	ljmp	00133$
      000224                        917 00200$:
                                    918 ;	src/io.c:124: char c = getchar();               //  take user input
      000224 C0 07            [24]  919 	push	ar7
      000226 C0 06            [24]  920 	push	ar6
      000228 C0 05            [24]  921 	push	ar5
      00022A C0 04            [24]  922 	push	ar4
      00022C 12r00r1F         [24]  923 	lcall	_getchar
      00022F AA 82            [24]  924 	mov	r2,dpl
      000231 AB 83            [24]  925 	mov	r3,dph
      000233 D0 04            [24]  926 	pop	ar4
      000235 D0 05            [24]  927 	pop	ar5
      000237 D0 06            [24]  928 	pop	ar6
      000239 D0 07            [24]  929 	pop	ar7
                                    930 ;	src/io.c:125: if (c == '\r')                    //user enters ENTER key
      00023B BA 0D 03         [24]  931 	cjne	r2,#0x0d,00201$
      00023E 02r03r8A         [24]  932 	ljmp	00133$
      000241                        933 00201$:
                                    934 ;	src/io.c:129: printf_tiny("%c", c);            //prints character on screen as user is typing
      000241 8A 01            [24]  935 	mov	ar1,r2
      000243 7B 00            [12]  936 	mov	r3,#0x00
      000245 C0 07            [24]  937 	push	ar7
      000247 C0 06            [24]  938 	push	ar6
      000249 C0 05            [24]  939 	push	ar5
      00024B C0 04            [24]  940 	push	ar4
      00024D C0 02            [24]  941 	push	ar2
      00024F C0 01            [24]  942 	push	ar1
      000251 C0 03            [24]  943 	push	ar3
      000253 74r23            [12]  944 	mov	a,#___str_1
      000255 C0 E0            [24]  945 	push	acc
      000257 74s00            [12]  946 	mov	a,#(___str_1 >> 8)
      000259 C0 E0            [24]  947 	push	acc
      00025B 12r00r00         [24]  948 	lcall	_printf_tiny
      00025E E5 81            [12]  949 	mov	a,sp
      000260 24 FC            [12]  950 	add	a,#0xfc
      000262 F5 81            [12]  951 	mov	sp,a
      000264 D0 02            [24]  952 	pop	ar2
      000266 D0 04            [24]  953 	pop	ar4
      000268 D0 05            [24]  954 	pop	ar5
      00026A D0 06            [24]  955 	pop	ar6
      00026C D0 07            [24]  956 	pop	ar7
                                    957 ;	src/io.c:131: if (c >= '0' && c <= '9')        // check if input is a number
      00026E BA 30 00         [24]  958 	cjne	r2,#0x30,00202$
      000271                        959 00202$:
      000271 40 11            [24]  960 	jc	00128$
      000273 EA               [12]  961 	mov	a,r2
      000274 24 C6            [12]  962 	add	a,#0xff - 0x39
      000276 40 0C            [24]  963 	jc	00128$
                                    964 ;	src/io.c:133: x = c - '0';           //converts user input(ASCII) to int
      000278 8A 03            [24]  965 	mov	ar3,r2
      00027A EB               [12]  966 	mov	a,r3
      00027B 24 D0            [12]  967 	add	a,#0xd0
      00027D 90r00r0E         [24]  968 	mov	dptr,#_getUserHexInput_x_262146_39
      000280 F0               [24]  969 	movx	@dptr,a
      000281 02r03r17         [24]  970 	ljmp	00129$
      000284                        971 00128$:
                                    972 ;	src/io.c:135: else if (c == 'A' || c == 'a')
      000284 BA 41 02         [24]  973 	cjne	r2,#0x41,00205$
      000287 80 03            [24]  974 	sjmp	00123$
      000289                        975 00205$:
      000289 BA 61 09         [24]  976 	cjne	r2,#0x61,00124$
      00028C                        977 00123$:
                                    978 ;	src/io.c:137: x = 10;
      00028C 90r00r0E         [24]  979 	mov	dptr,#_getUserHexInput_x_262146_39
      00028F 74 0A            [12]  980 	mov	a,#0x0a
      000291 F0               [24]  981 	movx	@dptr,a
      000292 02r03r17         [24]  982 	ljmp	00129$
      000295                        983 00124$:
                                    984 ;	src/io.c:139: else if (c == 'B' || c == 'b')
      000295 BA 42 02         [24]  985 	cjne	r2,#0x42,00208$
      000298 80 03            [24]  986 	sjmp	00119$
      00029A                        987 00208$:
      00029A BA 62 08         [24]  988 	cjne	r2,#0x62,00120$
      00029D                        989 00119$:
                                    990 ;	src/io.c:141: x = 11;
      00029D 90r00r0E         [24]  991 	mov	dptr,#_getUserHexInput_x_262146_39
      0002A0 74 0B            [12]  992 	mov	a,#0x0b
      0002A2 F0               [24]  993 	movx	@dptr,a
      0002A3 80 72            [24]  994 	sjmp	00129$
      0002A5                        995 00120$:
                                    996 ;	src/io.c:143: else if (c == 'C' || c == 'c')
      0002A5 BA 43 02         [24]  997 	cjne	r2,#0x43,00211$
      0002A8 80 03            [24]  998 	sjmp	00115$
      0002AA                        999 00211$:
      0002AA BA 63 08         [24] 1000 	cjne	r2,#0x63,00116$
      0002AD                       1001 00115$:
                                   1002 ;	src/io.c:145: x = 12;
      0002AD 90r00r0E         [24] 1003 	mov	dptr,#_getUserHexInput_x_262146_39
      0002B0 74 0C            [12] 1004 	mov	a,#0x0c
      0002B2 F0               [24] 1005 	movx	@dptr,a
      0002B3 80 62            [24] 1006 	sjmp	00129$
      0002B5                       1007 00116$:
                                   1008 ;	src/io.c:147: else if (c == 'D' || c == 'd')
      0002B5 BA 44 02         [24] 1009 	cjne	r2,#0x44,00214$
      0002B8 80 03            [24] 1010 	sjmp	00111$
      0002BA                       1011 00214$:
      0002BA BA 64 08         [24] 1012 	cjne	r2,#0x64,00112$
      0002BD                       1013 00111$:
                                   1014 ;	src/io.c:149: x = 13;
      0002BD 90r00r0E         [24] 1015 	mov	dptr,#_getUserHexInput_x_262146_39
      0002C0 74 0D            [12] 1016 	mov	a,#0x0d
      0002C2 F0               [24] 1017 	movx	@dptr,a
      0002C3 80 52            [24] 1018 	sjmp	00129$
      0002C5                       1019 00112$:
                                   1020 ;	src/io.c:151: else if (c == 'E' || c == 'e')
      0002C5 BA 45 02         [24] 1021 	cjne	r2,#0x45,00217$
      0002C8 80 03            [24] 1022 	sjmp	00107$
      0002CA                       1023 00217$:
      0002CA BA 65 08         [24] 1024 	cjne	r2,#0x65,00108$
      0002CD                       1025 00107$:
                                   1026 ;	src/io.c:153: x = 14;
      0002CD 90r00r0E         [24] 1027 	mov	dptr,#_getUserHexInput_x_262146_39
      0002D0 74 0E            [12] 1028 	mov	a,#0x0e
      0002D2 F0               [24] 1029 	movx	@dptr,a
      0002D3 80 42            [24] 1030 	sjmp	00129$
      0002D5                       1031 00108$:
                                   1032 ;	src/io.c:155: else if (c == 'F' || c == 'f')
      0002D5 BA 46 02         [24] 1033 	cjne	r2,#0x46,00220$
      0002D8 80 03            [24] 1034 	sjmp	00103$
      0002DA                       1035 00220$:
      0002DA BA 66 08         [24] 1036 	cjne	r2,#0x66,00104$
      0002DD                       1037 00103$:
                                   1038 ;	src/io.c:157: x = 15;
      0002DD 90r00r0E         [24] 1039 	mov	dptr,#_getUserHexInput_x_262146_39
      0002E0 74 0F            [12] 1040 	mov	a,#0x0f
      0002E2 F0               [24] 1041 	movx	@dptr,a
      0002E3 80 32            [24] 1042 	sjmp	00129$
      0002E5                       1043 00104$:
                                   1044 ;	src/io.c:161: ERROR_LOG("Enter only values between 0 to 9 and A to F!");   //if user enters an other character than a number
      0002E5 C0 07            [24] 1045 	push	ar7
      0002E7 C0 06            [24] 1046 	push	ar6
      0002E9 C0 05            [24] 1047 	push	ar5
      0002EB 74rC5            [12] 1048 	mov	a,#___str_7
      0002ED C0 E0            [24] 1049 	push	acc
      0002EF 74s00            [12] 1050 	mov	a,#(___str_7 >> 8)
      0002F1 C0 E0            [24] 1051 	push	acc
      0002F3 12r00r00         [24] 1052 	lcall	_printf_tiny
      0002F6 15 81            [12] 1053 	dec	sp
      0002F8 15 81            [12] 1054 	dec	sp
      0002FA 74r57            [12] 1055 	mov	a,#___str_3
      0002FC C0 E0            [24] 1056 	push	acc
      0002FE 74s00            [12] 1057 	mov	a,#(___str_3 >> 8)
      000300 C0 E0            [24] 1058 	push	acc
      000302 12r00r00         [24] 1059 	lcall	_printf_tiny
      000305 15 81            [12] 1060 	dec	sp
      000307 15 81            [12] 1061 	dec	sp
      000309 D0 05            [24] 1062 	pop	ar5
      00030B D0 06            [24] 1063 	pop	ar6
      00030D D0 07            [24] 1064 	pop	ar7
                                   1065 ;	src/io.c:162: fail = true;
      00030F 90r00r0D         [24] 1066 	mov	dptr,#_getUserHexInput_fail_131073_35
      000312 74 01            [12] 1067 	mov	a,#0x01
      000314 F0               [24] 1068 	movx	@dptr,a
                                   1069 ;	src/io.c:163: break;
      000315 80 73            [24] 1070 	sjmp	00133$
      000317                       1071 00129$:
                                   1072 ;	src/io.c:165: value = value * 16 + x;        //calculates multi-digit ASCII input
      000317 90r00r0B         [24] 1073 	mov	dptr,#_getUserHexInput_value_65536_33
      00031A E0               [24] 1074 	movx	a,@dptr
      00031B FA               [12] 1075 	mov	r2,a
      00031C A3               [24] 1076 	inc	dptr
      00031D E0               [24] 1077 	movx	a,@dptr
      00031E C4               [12] 1078 	swap	a
      00031F 54 F0            [12] 1079 	anl	a,#0xf0
      000321 CA               [12] 1080 	xch	a,r2
      000322 C4               [12] 1081 	swap	a
      000323 CA               [12] 1082 	xch	a,r2
      000324 6A               [12] 1083 	xrl	a,r2
      000325 CA               [12] 1084 	xch	a,r2
      000326 54 F0            [12] 1085 	anl	a,#0xf0
      000328 CA               [12] 1086 	xch	a,r2
      000329 6A               [12] 1087 	xrl	a,r2
      00032A FB               [12] 1088 	mov	r3,a
      00032B 90r00r0E         [24] 1089 	mov	dptr,#_getUserHexInput_x_262146_39
      00032E E0               [24] 1090 	movx	a,@dptr
      00032F F8               [12] 1091 	mov	r0,a
      000330 79 00            [12] 1092 	mov	r1,#0x00
      000332 2A               [12] 1093 	add	a,r2
      000333 FA               [12] 1094 	mov	r2,a
      000334 E9               [12] 1095 	mov	a,r1
      000335 3B               [12] 1096 	addc	a,r3
      000336 FB               [12] 1097 	mov	r3,a
      000337 90r00r0B         [24] 1098 	mov	dptr,#_getUserHexInput_value_65536_33
      00033A EA               [12] 1099 	mov	a,r2
      00033B F0               [24] 1100 	movx	@dptr,a
      00033C EB               [12] 1101 	mov	a,r3
      00033D A3               [24] 1102 	inc	dptr
      00033E F0               [24] 1103 	movx	@dptr,a
                                   1104 ;	src/io.c:166: if (value > maxVal)
      00033F 90r00r0B         [24] 1105 	mov	dptr,#_getUserHexInput_value_65536_33
      000342 E0               [24] 1106 	movx	a,@dptr
      000343 FA               [12] 1107 	mov	r2,a
      000344 A3               [24] 1108 	inc	dptr
      000345 E0               [24] 1109 	movx	a,@dptr
      000346 FB               [12] 1110 	mov	r3,a
      000347 C3               [12] 1111 	clr	c
      000348 EE               [12] 1112 	mov	a,r6
      000349 9A               [12] 1113 	subb	a,r2
      00034A EF               [12] 1114 	mov	a,r7
      00034B 9B               [12] 1115 	subb	a,r3
      00034C 50 38            [24] 1116 	jnc	00141$
                                   1117 ;	src/io.c:168: ERROR_LOG("Value entered is beyond range %x", maxVal);
      00034E C0 07            [24] 1118 	push	ar7
      000350 C0 06            [24] 1119 	push	ar6
      000352 C0 05            [24] 1120 	push	ar5
      000354 C0 06            [24] 1121 	push	ar6
      000356 C0 07            [24] 1122 	push	ar7
      000358 74r26            [12] 1123 	mov	a,#___str_2
      00035A C0 E0            [24] 1124 	push	acc
      00035C 74s00            [12] 1125 	mov	a,#(___str_2 >> 8)
      00035E C0 E0            [24] 1126 	push	acc
      000360 12r00r00         [24] 1127 	lcall	_printf_tiny
      000363 E5 81            [12] 1128 	mov	a,sp
      000365 24 FC            [12] 1129 	add	a,#0xfc
      000367 F5 81            [12] 1130 	mov	sp,a
      000369 74r57            [12] 1131 	mov	a,#___str_3
      00036B C0 E0            [24] 1132 	push	acc
      00036D 74s00            [12] 1133 	mov	a,#(___str_3 >> 8)
      00036F C0 E0            [24] 1134 	push	acc
      000371 12r00r00         [24] 1135 	lcall	_printf_tiny
      000374 15 81            [12] 1136 	dec	sp
      000376 15 81            [12] 1137 	dec	sp
      000378 D0 05            [24] 1138 	pop	ar5
      00037A D0 06            [24] 1139 	pop	ar6
      00037C D0 07            [24] 1140 	pop	ar7
                                   1141 ;	src/io.c:169: fail = true;
      00037E 90r00r0D         [24] 1142 	mov	dptr,#_getUserHexInput_fail_131073_35
      000381 74 01            [12] 1143 	mov	a,#0x01
      000383 F0               [24] 1144 	movx	@dptr,a
                                   1145 ;	src/io.c:170: break;
      000384 80 04            [24] 1146 	sjmp	00133$
      000386                       1147 00141$:
                                   1148 ;	src/io.c:122: for (uint8_t i = 0; i < maxChar; i++)
      000386 0C               [12] 1149 	inc	r4
      000387 02r02r1C         [24] 1150 	ljmp	00140$
      00038A                       1151 00133$:
                                   1152 ;	src/io.c:174: if (fail == false)                      //if no previous errors have occured, break while loop
      00038A 90r00r0D         [24] 1153 	mov	dptr,#_getUserHexInput_fail_131073_35
      00038D E0               [24] 1154 	movx	a,@dptr
      00038E 60 03            [24] 1155 	jz	00224$
      000390 02r01rEA         [24] 1156 	ljmp	00137$
      000393                       1157 00224$:
                                   1158 ;	src/io.c:179: USER_INPUT_CHECK("User entered input = %x", value);
      000393 90r00r0B         [24] 1159 	mov	dptr,#_getUserHexInput_value_65536_33
      000396 E0               [24] 1160 	movx	a,@dptr
      000397 FE               [12] 1161 	mov	r6,a
      000398 A3               [24] 1162 	inc	dptr
      000399 E0               [24] 1163 	movx	a,@dptr
      00039A FF               [12] 1164 	mov	r7,a
      00039B C0 07            [24] 1165 	push	ar7
      00039D C0 06            [24] 1166 	push	ar6
      00039F C0 06            [24] 1167 	push	ar6
      0003A1 C0 07            [24] 1168 	push	ar7
      0003A3 74r02            [12] 1169 	mov	a,#___str_8
      0003A5 C0 E0            [24] 1170 	push	acc
      0003A7 74s01            [12] 1171 	mov	a,#(___str_8 >> 8)
      0003A9 C0 E0            [24] 1172 	push	acc
      0003AB 12r00r00         [24] 1173 	lcall	_printf_tiny
      0003AE E5 81            [12] 1174 	mov	a,sp
      0003B0 24 FC            [12] 1175 	add	a,#0xfc
      0003B2 F5 81            [12] 1176 	mov	sp,a
      0003B4 74r57            [12] 1177 	mov	a,#___str_3
      0003B6 C0 E0            [24] 1178 	push	acc
      0003B8 74s00            [12] 1179 	mov	a,#(___str_3 >> 8)
      0003BA C0 E0            [24] 1180 	push	acc
      0003BC 12r00r00         [24] 1181 	lcall	_printf_tiny
      0003BF 15 81            [12] 1182 	dec	sp
      0003C1 15 81            [12] 1183 	dec	sp
      0003C3 D0 06            [24] 1184 	pop	ar6
      0003C5 D0 07            [24] 1185 	pop	ar7
                                   1186 ;	src/io.c:180: return value;
      0003C7 8E 82            [24] 1187 	mov	dpl,r6
      0003C9 8F 83            [24] 1188 	mov	dph,r7
                                   1189 ;	src/io.c:181: }
      0003CB 22               [24] 1190 	ret
                                   1191 	.area CSEG    (CODE)
                                   1192 	.area CONST   (CODE)
                                   1193 	.area CONST   (CODE)
      000000                       1194 ___str_0:
      000000 0A                    1195 	.db 0x0a
      000001 0D                    1196 	.db 0x0d
      000002 45 6E 74 65 72 20 61  1197 	.ascii "Enter a maximum %d digit number:"
             20 6D 61 78 69 6D 75
             6D 20 25 64 20 64 69
             67 69 74 20 6E 75 6D
             62 65 72 3A
      000022 00                    1198 	.db 0x00
                                   1199 	.area CSEG    (CODE)
                                   1200 	.area CONST   (CODE)
      000023                       1201 ___str_1:
      000023 25 63                 1202 	.ascii "%c"
      000025 00                    1203 	.db 0x00
                                   1204 	.area CSEG    (CODE)
                                   1205 	.area CONST   (CODE)
      000026                       1206 ___str_2:
      000026 0A                    1207 	.db 0x0a
      000027 0D                    1208 	.db 0x0d
      000028 1B                    1209 	.db 0x1b
      000029 5B 31 3B 33 31 6D 45  1210 	.ascii "[1;31mERROR: Value entered is beyond range %x"
             52 52 4F 52 3A 20 56
             61 6C 75 65 20 65 6E
             74 65 72 65 64 20 69
             73 20 62 65 79 6F 6E
             64 20 72 61 6E 67 65
             20 25 78
      000056 00                    1211 	.db 0x00
                                   1212 	.area CSEG    (CODE)
                                   1213 	.area CONST   (CODE)
      000057                       1214 ___str_3:
      000057 1B                    1215 	.db 0x1b
      000058 5B 30 6D              1216 	.ascii "[0m"
      00005B 00                    1217 	.db 0x00
                                   1218 	.area CSEG    (CODE)
                                   1219 	.area CONST   (CODE)
      00005C                       1220 ___str_4:
      00005C 0A                    1221 	.db 0x0a
      00005D 0D                    1222 	.db 0x0d
      00005E 1B                    1223 	.db 0x1b
      00005F 5B 31 3B 33 31 6D 45  1224 	.ascii "[1;31mERROR: Enter only digit!"
             52 52 4F 52 3A 20 45
             6E 74 65 72 20 6F 6E
             6C 79 20 64 69 67 69
             74 21
      00007D 00                    1225 	.db 0x00
                                   1226 	.area CSEG    (CODE)
                                   1227 	.area CONST   (CODE)
      00007E                       1228 ___str_5:
      00007E 0A                    1229 	.db 0x0a
      00007F 0D                    1230 	.db 0x0d
      000080 1B                    1231 	.db 0x1b
      000081 5B 31 3B 33 33 6D 55  1232 	.ascii "[1;33mUser entered input = %d"
             73 65 72 20 65 6E 74
             65 72 65 64 20 69 6E
             70 75 74 20 3D 20 25
             64
      00009E 00                    1233 	.db 0x00
                                   1234 	.area CSEG    (CODE)
                                   1235 	.area CONST   (CODE)
      00009F                       1236 ___str_6:
      00009F 0A                    1237 	.db 0x0a
      0000A0 0D                    1238 	.db 0x0d
      0000A1 45 6E 74 65 72 20 61  1239 	.ascii "Enter a maximum %d character input:"
             20 6D 61 78 69 6D 75
             6D 20 25 64 20 63 68
             61 72 61 63 74 65 72
             20 69 6E 70 75 74 3A
      0000C4 00                    1240 	.db 0x00
                                   1241 	.area CSEG    (CODE)
                                   1242 	.area CONST   (CODE)
      0000C5                       1243 ___str_7:
      0000C5 0A                    1244 	.db 0x0a
      0000C6 0D                    1245 	.db 0x0d
      0000C7 1B                    1246 	.db 0x1b
      0000C8 5B 31 3B 33 31 6D 45  1247 	.ascii "[1;31mERROR: Enter only values between 0 to 9 and A to F!"
             52 52 4F 52 3A 20 45
             6E 74 65 72 20 6F 6E
             6C 79 20 76 61 6C 75
             65 73 20 62 65 74 77
             65 65 6E 20 30 20 74
             6F 20 39 20 61 6E 64
             20 41 20 74 6F 20 46
             21
      000101 00                    1248 	.db 0x00
                                   1249 	.area CSEG    (CODE)
                                   1250 	.area CONST   (CODE)
      000102                       1251 ___str_8:
      000102 0A                    1252 	.db 0x0a
      000103 0D                    1253 	.db 0x0d
      000104 1B                    1254 	.db 0x1b
      000105 5B 31 3B 33 33 6D 55  1255 	.ascii "[1;33mUser entered input = %x"
             73 65 72 20 65 6E 74
             65 72 65 64 20 69 6E
             70 75 74 20 3D 20 25
             78
      000122 00                    1256 	.db 0x00
                                   1257 	.area CSEG    (CODE)
                                   1258 	.area XINIT   (CODE)
                                   1259 	.area CABS    (ABS,CODE)
